; Function Attrs: mustprogress nofree norecurse nosync nounwind willreturn memory(argmem: write) uwtable
define hidden void @_ZN19OpenColorIO_v2_4dev19DynamicPropertyImplC2ENS_19DynamicPropertyTypeEb(ptr nocapture noundef nonnull writeonly align 8 dereferenceable(13) %this, i32 noundef %type, i1 noundef zeroext %dynamic) unnamed_addr #5 align 2 {
entry:
  %frombool = zext i1 %dynamic to i8
  store ptr getelementptr inbounds ({ [5 x ptr] }, ptr @_ZTVN19OpenColorIO_v2_4dev19DynamicPropertyImplE, i64 0, i32 0, i64 2), ptr %this, align 8
  %m_type = getelementptr inbounds i8, ptr %this, i64 8
  store i32 %type, ptr %m_type, align 8
  %m_isDynamic = getelementptr inbounds i8, ptr %this, i64 12
  store i8 %frombool, ptr %m_isDynamic, align 4
  ret void
}